target datalayout = "e-m:e-p270:32:32-p271:32:32-p272:64:64-i64:64-i128:128-f80:128-n8:16:32:64-S128"
target triple = "x86_64-pc-linux-gnu"

%struct.DhKey = type { %struct.sp_int, %struct.sp_int, %struct.sp_int, ptr, i32 }
%struct.sp_int = type { i16, i16, [129 x i64] }

; Function Attrs: nounwind uwtable
define i32 @wc_InitDhKey_ex(ptr noundef %0, ptr noundef %1, i32 noundef %2) #0 {
  %4 = alloca i32, align 4
  %5 = alloca ptr, align 8
  %6 = alloca ptr, align 8
  %7 = alloca i32, align 4
  %8 = alloca i32, align 4
  %9 = alloca i32, align 4
  store ptr %0, ptr %5, align 8, !tbaa !3
  store ptr %1, ptr %6, align 8, !tbaa !8
  store i32 %2, ptr %7, align 4, !tbaa !9
  call void @llvm.lifetime.start.p0(i64 4, ptr %8) #9
  store i32 0, ptr %8, align 4, !tbaa !9
  %10 = load ptr, ptr %5, align 8, !tbaa !3
  %11 = icmp eq ptr %10, null
  br i1 %11, label %12, label %13

12:                                               ; preds = %3
  store i32 -173, ptr %4, align 4
  store i32 1, ptr %9, align 4
  br label %32

13:                                               ; preds = %3
  %14 = load ptr, ptr %6, align 8, !tbaa !8
  %15 = load ptr, ptr %5, align 8, !tbaa !3
  %16 = getelementptr inbounds nuw %struct.DhKey, ptr %15, i32 0, i32 3
  store ptr %14, ptr %16, align 8, !tbaa !11
  %17 = load ptr, ptr %5, align 8, !tbaa !3
  %18 = getelementptr inbounds nuw %struct.DhKey, ptr %17, i32 0, i32 4
  store i32 0, ptr %18, align 8, !tbaa !15
  %19 = load ptr, ptr %5, align 8, !tbaa !3
  %20 = getelementptr inbounds nuw %struct.DhKey, ptr %19, i32 0, i32 0
  %21 = load ptr, ptr %5, align 8, !tbaa !3
  %22 = getelementptr inbounds nuw %struct.DhKey, ptr %21, i32 0, i32 1
  %23 = load ptr, ptr %5, align 8, !tbaa !3
  %24 = getelementptr inbounds nuw %struct.DhKey, ptr %23, i32 0, i32 2
  %25 = call i32 @sp_init_multi(ptr noundef %20, ptr noundef %22, ptr noundef %24, ptr noundef null, ptr noundef null, ptr noundef null)
  %26 = icmp ne i32 %25, 0
  br i1 %26, label %27, label %28

27:                                               ; preds = %13
  store i32 -125, ptr %4, align 4
  store i32 1, ptr %9, align 4
  br label %32

28:                                               ; preds = %13
  %29 = load ptr, ptr %5, align 8, !tbaa !3
  %30 = getelementptr inbounds nuw %struct.DhKey, ptr %29, i32 0, i32 4
  store i32 0, ptr %30, align 8, !tbaa !15
  %31 = load i32, ptr %8, align 4, !tbaa !9
  store i32 %31, ptr %4, align 4
  store i32 1, ptr %9, align 4
  br label %32

32:                                               ; preds = %28, %27, %12
  call void @llvm.lifetime.end.p0(i64 4, ptr %8) #9
  %33 = load i32, ptr %4, align 4
  ret i32 %33
}