; Function Attrs: nounwind uwtable
define range(i32 -173, 1) i32 @wc_InitDhKey_ex(ptr noundef %0, ptr noundef %1, i32 noundef %2) local_unnamed_addr #1 {
  %4 = icmp eq ptr %0, null
  br i1 %4, label %12, label %5

5:                                                ; preds = %3
  %6 = getelementptr inbounds nuw i8, ptr %0, i64 3120
  store ptr %1, ptr %6, align 8, !tbaa !3
  %7 = getelementptr inbounds nuw i8, ptr %0, i64 3128
  store i32 0, ptr %7, align 8, !tbaa !11
  %8 = getelementptr inbounds nuw i8, ptr %0, i64 1040
  %9 = getelementptr inbounds nuw i8, ptr %0, i64 2080
  %10 = tail call i32 @sp_init_multi(ptr noundef nonnull %0, ptr noundef nonnull %8, ptr noundef nonnull %9, ptr noundef null, ptr noundef null, ptr noundef null) #14
  %.not = icmp eq i32 %10, 0
  br i1 %.not, label %11, label %12

11:                                               ; preds = %5
  store i32 0, ptr %7, align 8, !tbaa !11
  br label %12

12:                                               ; preds = %5, %3, %11
  %.0 = phi i32 [ 0, %11 ], [ -173, %3 ], [ -125, %5 ]
  ret i32 %.0
}